#include <math.h>
#include <stdio.h>
#include <stdlib.h>
#include <string.h>

int main(){
  int n,i,j,k;
  scanf("%d",&n);
  if(n==1){
	  printf("End\n");
  }
  else{while(n!=1){
	  if(n%2==0){j=n/2; printf("%d/2=%d\n",n,j);}
  else {j=n*3+1;printf("%d*3+1=%d\n",n,j);}
  n=j;
  }printf("End\n");}
  
return 0;}
